; ModuleID = 'source-C-CXX/49/2487.c'
source_filename = "source-C-CXX/49/2487.c"
target datalayout = "e-m:e-p270:32:32-p271:32:32-p272:64:64-i64:64-f80:128-n8:16:32:64-S128"
target triple = "x86_64-pc-linux-gnu"

@.str = private unnamed_addr constant [3 x i8] c"%d\00", align 1
@.str.1 = private unnamed_addr constant [4 x i8] c"%d\0A\00", align 1

; Function Attrs: nofree nounwind sspstrong uwtable
define dso_local i32 @main() local_unnamed_addr #0 {
  %1 = alloca i32, align 4
  %2 = bitcast i32* %1 to i8*
  call void @llvm.lifetime.start.p0i8(i64 4, i8* nonnull %2) #3
  %3 = call i32 (i8*, ...) @__isoc99_scanf(i8* getelementptr inbounds ([3 x i8], [3 x i8]* @.str, i64 0, i64 0), i32* nonnull %1)
  %4 = load i32, i32* %1, align 4, !tbaa !5
  %5 = icmp slt i32 %4, 6
  br i1 %5, label %9, label %6

6:                                                ; preds = %0
  %7 = urem i32 %4, 7
  %8 = icmp eq i32 %7, 0
  br i1 %8, label %21, label %24

9:                                                ; preds = %0
  %10 = add nsw i32 %4, 7
  %11 = srem i32 %10, 7
  %12 = icmp eq i32 %11, 0
  br i1 %12, label %13, label %16

13:                                               ; preds = %9
  %14 = call i32 (i8*, ...) @printf(i8* nonnull dereferenceable(1) getelementptr inbounds ([4 x i8], [4 x i8]* @.str.1, i64 0, i64 0), i32 1)
  %15 = load i32, i32* %1, align 4, !tbaa !5
  br label %16

16:                                               ; preds = %9, %13
  %17 = phi i32 [ %4, %9 ], [ %15, %13 ]
  %18 = add i32 %17, 38
  %19 = srem i32 %18, 7
  %20 = icmp eq i32 %19, 0
  br i1 %20, label %112, label %115

21:                                               ; preds = %6
  %22 = call i32 (i8*, ...) @printf(i8* nonnull dereferenceable(1) getelementptr inbounds ([4 x i8], [4 x i8]* @.str.1, i64 0, i64 0), i32 1)
  %23 = load i32, i32* %1, align 4, !tbaa !5
  br label %24

24:                                               ; preds = %6, %21
  %25 = phi i32 [ %4, %6 ], [ %23, %21 ]
  %26 = add i32 %25, 31
  %27 = srem i32 %26, 7
  %28 = icmp eq i32 %27, 0
  br i1 %28, label %32, label %35

29:                                               ; preds = %187, %107
  %30 = call i32 (i8*, ...) @printf(i8* nonnull dereferenceable(1) getelementptr inbounds ([4 x i8], [4 x i8]* @.str.1, i64 0, i64 0), i32 12)
  br label %31

31:                                               ; preds = %29, %187, %107
  call void @llvm.lifetime.end.p0i8(i64 4, i8* nonnull %2) #3
  ret i32 0

32:                                               ; preds = %24
  %33 = call i32 (i8*, ...) @printf(i8* nonnull dereferenceable(1) getelementptr inbounds ([4 x i8], [4 x i8]* @.str.1, i64 0, i64 0), i32 2)
  %34 = load i32, i32* %1, align 4, !tbaa !5
  br label %35

35:                                               ; preds = %32, %24
  %36 = phi i32 [ %34, %32 ], [ %25, %24 ]
  %37 = add i32 %36, 59
  %38 = srem i32 %37, 7
  %39 = icmp eq i32 %38, 0
  br i1 %39, label %40, label %43

40:                                               ; preds = %35
  %41 = call i32 (i8*, ...) @printf(i8* nonnull dereferenceable(1) getelementptr inbounds ([4 x i8], [4 x i8]* @.str.1, i64 0, i64 0), i32 3)
  %42 = load i32, i32* %1, align 4, !tbaa !5
  br label %43

43:                                               ; preds = %40, %35
  %44 = phi i32 [ %42, %40 ], [ %36, %35 ]
  %45 = add i32 %44, 90
  %46 = srem i32 %45, 7
  %47 = icmp eq i32 %46, 0
  br i1 %47, label %48, label %51

48:                                               ; preds = %43
  %49 = call i32 (i8*, ...) @printf(i8* nonnull dereferenceable(1) getelementptr inbounds ([4 x i8], [4 x i8]* @.str.1, i64 0, i64 0), i32 4)
  %50 = load i32, i32* %1, align 4, !tbaa !5
  br label %51

51:                                               ; preds = %48, %43
  %52 = phi i32 [ %50, %48 ], [ %44, %43 ]
  %53 = add i32 %52, 120
  %54 = srem i32 %53, 7
  %55 = icmp eq i32 %54, 0
  br i1 %55, label %56, label %59

56:                                               ; preds = %51
  %57 = call i32 (i8*, ...) @printf(i8* nonnull dereferenceable(1) getelementptr inbounds ([4 x i8], [4 x i8]* @.str.1, i64 0, i64 0), i32 5)
  %58 = load i32, i32* %1, align 4, !tbaa !5
  br label %59

59:                                               ; preds = %56, %51
  %60 = phi i32 [ %58, %56 ], [ %52, %51 ]
  %61 = add i32 %60, 151
  %62 = srem i32 %61, 7
  %63 = icmp eq i32 %62, 0
  br i1 %63, label %64, label %67

64:                                               ; preds = %59
  %65 = call i32 (i8*, ...) @printf(i8* nonnull dereferenceable(1) getelementptr inbounds ([4 x i8], [4 x i8]* @.str.1, i64 0, i64 0), i32 6)
  %66 = load i32, i32* %1, align 4, !tbaa !5
  br label %67

67:                                               ; preds = %64, %59
  %68 = phi i32 [ %66, %64 ], [ %60, %59 ]
  %69 = add i32 %68, 181
  %70 = srem i32 %69, 7
  %71 = icmp eq i32 %70, 0
  br i1 %71, label %72, label %75

72:                                               ; preds = %67
  %73 = call i32 (i8*, ...) @printf(i8* nonnull dereferenceable(1) getelementptr inbounds ([4 x i8], [4 x i8]* @.str.1, i64 0, i64 0), i32 7)
  %74 = load i32, i32* %1, align 4, !tbaa !5
  br label %75

75:                                               ; preds = %72, %67
  %76 = phi i32 [ %74, %72 ], [ %68, %67 ]
  %77 = add i32 %76, 212
  %78 = srem i32 %77, 7
  %79 = icmp eq i32 %78, 0
  br i1 %79, label %80, label %83

80:                                               ; preds = %75
  %81 = call i32 (i8*, ...) @printf(i8* nonnull dereferenceable(1) getelementptr inbounds ([4 x i8], [4 x i8]* @.str.1, i64 0, i64 0), i32 8)
  %82 = load i32, i32* %1, align 4, !tbaa !5
  br label %83

83:                                               ; preds = %80, %75
  %84 = phi i32 [ %82, %80 ], [ %76, %75 ]
  %85 = add i32 %84, 243
  %86 = srem i32 %85, 7
  %87 = icmp eq i32 %86, 0
  br i1 %87, label %88, label %91

88:                                               ; preds = %83
  %89 = call i32 (i8*, ...) @printf(i8* nonnull dereferenceable(1) getelementptr inbounds ([4 x i8], [4 x i8]* @.str.1, i64 0, i64 0), i32 9)
  %90 = load i32, i32* %1, align 4, !tbaa !5
  br label %91

91:                                               ; preds = %88, %83
  %92 = phi i32 [ %90, %88 ], [ %84, %83 ]
  %93 = add i32 %92, 273
  %94 = srem i32 %93, 7
  %95 = icmp eq i32 %94, 0
  br i1 %95, label %96, label %99

96:                                               ; preds = %91
  %97 = call i32 (i8*, ...) @printf(i8* nonnull dereferenceable(1) getelementptr inbounds ([4 x i8], [4 x i8]* @.str.1, i64 0, i64 0), i32 10)
  %98 = load i32, i32* %1, align 4, !tbaa !5
  br label %99

99:                                               ; preds = %96, %91
  %100 = phi i32 [ %98, %96 ], [ %92, %91 ]
  %101 = add i32 %100, 304
  %102 = srem i32 %101, 7
  %103 = icmp eq i32 %102, 0
  br i1 %103, label %104, label %107

104:                                              ; preds = %99
  %105 = call i32 (i8*, ...) @printf(i8* nonnull dereferenceable(1) getelementptr inbounds ([4 x i8], [4 x i8]* @.str.1, i64 0, i64 0), i32 11)
  %106 = load i32, i32* %1, align 4, !tbaa !5
  br label %107

107:                                              ; preds = %104, %99
  %108 = phi i32 [ %106, %104 ], [ %100, %99 ]
  %109 = add i32 %108, 334
  %110 = srem i32 %109, 7
  %111 = icmp eq i32 %110, 0
  br i1 %111, label %29, label %31

112:                                              ; preds = %16
  %113 = call i32 (i8*, ...) @printf(i8* nonnull dereferenceable(1) getelementptr inbounds ([4 x i8], [4 x i8]* @.str.1, i64 0, i64 0), i32 2)
  %114 = load i32, i32* %1, align 4, !tbaa !5
  br label %115

115:                                              ; preds = %112, %16
  %116 = phi i32 [ %114, %112 ], [ %17, %16 ]
  %117 = add i32 %116, 66
  %118 = srem i32 %117, 7
  %119 = icmp eq i32 %118, 0
  br i1 %119, label %120, label %123

120:                                              ; preds = %115
  %121 = call i32 (i8*, ...) @printf(i8* nonnull dereferenceable(1) getelementptr inbounds ([4 x i8], [4 x i8]* @.str.1, i64 0, i64 0), i32 3)
  %122 = load i32, i32* %1, align 4, !tbaa !5
  br label %123

123:                                              ; preds = %120, %115
  %124 = phi i32 [ %122, %120 ], [ %116, %115 ]
  %125 = add i32 %124, 97
  %126 = srem i32 %125, 7
  %127 = icmp eq i32 %126, 0
  br i1 %127, label %128, label %131

128:                                              ; preds = %123
  %129 = call i32 (i8*, ...) @printf(i8* nonnull dereferenceable(1) getelementptr inbounds ([4 x i8], [4 x i8]* @.str.1, i64 0, i64 0), i32 4)
  %130 = load i32, i32* %1, align 4, !tbaa !5
  br label %131

131:                                              ; preds = %128, %123
  %132 = phi i32 [ %130, %128 ], [ %124, %123 ]
  %133 = add i32 %132, 127
  %134 = srem i32 %133, 7
  %135 = icmp eq i32 %134, 0
  br i1 %135, label %136, label %139

136:                                              ; preds = %131
  %137 = call i32 (i8*, ...) @printf(i8* nonnull dereferenceable(1) getelementptr inbounds ([4 x i8], [4 x i8]* @.str.1, i64 0, i64 0), i32 5)
  %138 = load i32, i32* %1, align 4, !tbaa !5
  br label %139

139:                                              ; preds = %136, %131
  %140 = phi i32 [ %138, %136 ], [ %132, %131 ]
  %141 = add i32 %140, 158
  %142 = srem i32 %141, 7
  %143 = icmp eq i32 %142, 0
  br i1 %143, label %144, label %147

144:                                              ; preds = %139
  %145 = call i32 (i8*, ...) @printf(i8* nonnull dereferenceable(1) getelementptr inbounds ([4 x i8], [4 x i8]* @.str.1, i64 0, i64 0), i32 6)
  %146 = load i32, i32* %1, align 4, !tbaa !5
  br label %147

147:                                              ; preds = %144, %139
  %148 = phi i32 [ %146, %144 ], [ %140, %139 ]
  %149 = add i32 %148, 188
  %150 = srem i32 %149, 7
  %151 = icmp eq i32 %150, 0
  br i1 %151, label %152, label %155

152:                                              ; preds = %147
  %153 = call i32 (i8*, ...) @printf(i8* nonnull dereferenceable(1) getelementptr inbounds ([4 x i8], [4 x i8]* @.str.1, i64 0, i64 0), i32 7)
  %154 = load i32, i32* %1, align 4, !tbaa !5
  br label %155

155:                                              ; preds = %152, %147
  %156 = phi i32 [ %154, %152 ], [ %148, %147 ]
  %157 = add i32 %156, 219
  %158 = srem i32 %157, 7
  %159 = icmp eq i32 %158, 0
  br i1 %159, label %160, label %163

160:                                              ; preds = %155
  %161 = call i32 (i8*, ...) @printf(i8* nonnull dereferenceable(1) getelementptr inbounds ([4 x i8], [4 x i8]* @.str.1, i64 0, i64 0), i32 8)
  %162 = load i32, i32* %1, align 4, !tbaa !5
  br label %163

163:                                              ; preds = %160, %155
  %164 = phi i32 [ %162, %160 ], [ %156, %155 ]
  %165 = add i32 %164, 250
  %166 = srem i32 %165, 7
  %167 = icmp eq i32 %166, 0
  br i1 %167, label %168, label %171

168:                                              ; preds = %163
  %169 = call i32 (i8*, ...) @printf(i8* nonnull dereferenceable(1) getelementptr inbounds ([4 x i8], [4 x i8]* @.str.1, i64 0, i64 0), i32 9)
  %170 = load i32, i32* %1, align 4, !tbaa !5
  br label %171

171:                                              ; preds = %168, %163
  %172 = phi i32 [ %170, %168 ], [ %164, %163 ]
  %173 = add i32 %172, 280
  %174 = srem i32 %173, 7
  %175 = icmp eq i32 %174, 0
  br i1 %175, label %176, label %179

176:                                              ; preds = %171
  %177 = call i32 (i8*, ...) @printf(i8* nonnull dereferenceable(1) getelementptr inbounds ([4 x i8], [4 x i8]* @.str.1, i64 0, i64 0), i32 10)
  %178 = load i32, i32* %1, align 4, !tbaa !5
  br label %179

179:                                              ; preds = %176, %171
  %180 = phi i32 [ %178, %176 ], [ %172, %171 ]
  %181 = add i32 %180, 311
  %182 = srem i32 %181, 7
  %183 = icmp eq i32 %182, 0
  br i1 %183, label %184, label %187

184:                                              ; preds = %179
  %185 = call i32 (i8*, ...) @printf(i8* nonnull dereferenceable(1) getelementptr inbounds ([4 x i8], [4 x i8]* @.str.1, i64 0, i64 0), i32 11)
  %186 = load i32, i32* %1, align 4, !tbaa !5
  br label %187

187:                                              ; preds = %184, %179
  %188 = phi i32 [ %186, %184 ], [ %180, %179 ]
  %189 = add i32 %188, 341
  %190 = srem i32 %189, 7
  %191 = icmp eq i32 %190, 0
  br i1 %191, label %29, label %31
}

; Function Attrs: argmemonly mustprogress nofree nosync nounwind willreturn
declare void @llvm.lifetime.start.p0i8(i64 immarg, i8* nocapture) #1

; Function Attrs: nofree nounwind
declare noundef i32 @__isoc99_scanf(i8* nocapture noundef readonly, ...) local_unnamed_addr #2

; Function Attrs: nofree nounwind
declare noundef i32 @printf(i8* nocapture noundef readonly, ...) local_unnamed_addr #2

; Function Attrs: argmemonly mustprogress nofree nosync nounwind willreturn
declare void @llvm.lifetime.end.p0i8(i64 immarg, i8* nocapture) #1


!llvm.module.flags = !{!0, !1, !2, !3}
!llvm.ident = !{!4}

!0 = !{i32 1, !"wchar_size", i32 4}
!1 = !{i32 7, !"PIC Level", i32 2}
!2 = !{i32 7, !"PIE Level", i32 2}
!3 = !{i32 7, !"uwtable", i32 1}
!4 = !{!"clang version 13.0.0"}
!5 = !{!6, !6, i64 0}
!6 = !{!"int", !7, i64 0}
!7 = !{!"omnipotent char", !8, i64 0}
!8 = !{!"Simple C/C++ TBAA"}
